target datalayout = "e-m:e-p270:32:32-p271:32:32-p272:64:64-i64:64-i128:128-f80:128-n8:16:32:64-S128"
target triple = "x86_64-pc-linux-gnu"

%"class.OpenImageIO::v3_1_0::CineonInput" = type { %"class.OpenImageIO::v3_1_0::ImageInput", ptr, %"class.cineon::Reader", %"class.std::vector.12" }
%"class.OpenImageIO::v3_1_0::ImageInput" = type { ptr, %"class.OpenImageIO::v3_1_0::ImageSpec", %"class.std::unique_ptr" }
%"class.OpenImageIO::v3_1_0::ImageSpec" = type { i32, i32, i32, i32, i32, i32, i32, i32, i32, i32, i32, i32, i32, i32, i32, i32, %"struct.OpenImageIO::v3_1_0::TypeDesc", %"class.std::vector", %"class.std::vector.0", i32, i32, i8, %"class.OpenImageIO::v3_1_0::ParamValueList" }
%"struct.OpenImageIO::v3_1_0::TypeDesc" = type { i8, i8, i8, i8, i32 }
%"class.std::vector" = type { %"struct.std::_Vector_base" }
%"struct.std::_Vector_base" = type { %"struct.std::_Vector_base<OpenImageIO::v3_1_0::TypeDesc, std::allocator<OpenImageIO::v3_1_0::TypeDesc>>::_Vector_impl" }
%"struct.std::_Vector_base<OpenImageIO::v3_1_0::TypeDesc, std::allocator<OpenImageIO::v3_1_0::TypeDesc>>::_Vector_impl" = type { %"struct.std::_Vector_base<OpenImageIO::v3_1_0::TypeDesc, std::allocator<OpenImageIO::v3_1_0::TypeDesc>>::_Vector_impl_data" }
%"struct.std::_Vector_base<OpenImageIO::v3_1_0::TypeDesc, std::allocator<OpenImageIO::v3_1_0::TypeDesc>>::_Vector_impl_data" = type { ptr, ptr, ptr }
%"class.std::vector.0" = type { %"struct.std::_Vector_base.1" }
%"struct.std::_Vector_base.1" = type { %"struct.std::_Vector_base<std::__cxx11::basic_string<char>, std::allocator<std::__cxx11::basic_string<char>>>::_Vector_impl" }
%"struct.std::_Vector_base<std::__cxx11::basic_string<char>, std::allocator<std::__cxx11::basic_string<char>>>::_Vector_impl" = type { %"struct.std::_Vector_base<std::__cxx11::basic_string<char>, std::allocator<std::__cxx11::basic_string<char>>>::_Vector_impl_data" }
%"struct.std::_Vector_base<std::__cxx11::basic_string<char>, std::allocator<std::__cxx11::basic_string<char>>>::_Vector_impl_data" = type { ptr, ptr, ptr }
%"class.OpenImageIO::v3_1_0::ParamValueList" = type { %"class.std::vector.5" }
%"class.std::vector.5" = type { %"struct.std::_Vector_base.6" }
%"struct.std::_Vector_base.6" = type { %"struct.std::_Vector_base<OpenImageIO::v3_1_0::ParamValue, std::allocator<OpenImageIO::v3_1_0::ParamValue>>::_Vector_impl" }
%"struct.std::_Vector_base<OpenImageIO::v3_1_0::ParamValue, std::allocator<OpenImageIO::v3_1_0::ParamValue>>::_Vector_impl" = type { %"struct.std::_Vector_base<OpenImageIO::v3_1_0::ParamValue, std::allocator<OpenImageIO::v3_1_0::ParamValue>>::_Vector_impl_data" }
%"struct.std::_Vector_base<OpenImageIO::v3_1_0::ParamValue, std::allocator<OpenImageIO::v3_1_0::ParamValue>>::_Vector_impl_data" = type { ptr, ptr, ptr }
%"class.std::unique_ptr" = type { %"struct.std::__uniq_ptr_data" }
%"struct.std::__uniq_ptr_data" = type { %"class.std::__uniq_ptr_impl" }
%"class.std::__uniq_ptr_impl" = type { %"class.std::tuple" }
%"class.std::tuple" = type { %"struct.std::_Tuple_impl" }
%"struct.std::_Tuple_impl" = type { %"struct.std::_Tuple_impl.10", %"struct.std::_Head_base.11" }
%"struct.std::_Tuple_impl.10" = type { %"struct.std::_Head_base" }
%"struct.std::_Head_base" = type { ptr }
%"struct.std::_Head_base.11" = type { ptr }
%"class.cineon::Reader" = type { ptr, %"struct.cineon::Header", ptr, ptr, ptr }
%"struct.cineon::Header" = type { %"struct.cineon::GenericHeader", %"struct.cineon::IndustryHeader" }
%"struct.cineon::GenericHeader" = type { i32, i32, i32, i32, i32, i32, [8 x i8], [100 x i8], [12 x i8], [12 x i8], [36 x i8], i8, i8, [2 x i8], [8 x %"struct.cineon::ImageElement"], [2 x float], [2 x float], [2 x float], [2 x float], [200 x i8], [28 x i8], i8, i8, i8, i8, i32, i32, [20 x i8], i32, i32, [100 x i8], [12 x i8], [12 x i8], [64 x i8], [32 x i8], [32 x i8], float, float, float, [40 x i8] }
%"struct.cineon::ImageElement" = type { [2 x i8], i8, i8, i32, i32, float, float, float, float }
%"struct.cineon::IndustryHeader" = type { i8, i8, i8, i8, i32, i32, [32 x i8], i32, float, [32 x i8], [200 x i8], [740 x i8] }
%"class.std::vector.12" = type { %"struct.std::_Vector_base.13" }
%"struct.std::_Vector_base.13" = type { %"struct.std::_Vector_base<unsigned char, std::allocator<unsigned char>>::_Vector_impl" }
%"struct.std::_Vector_base<unsigned char, std::allocator<unsigned char>>::_Vector_impl" = type { %"struct.std::_Vector_base<unsigned char, std::allocator<unsigned char>>::_Vector_impl_data" }
%"struct.std::_Vector_base<unsigned char, std::allocator<unsigned char>>::_Vector_impl_data" = type { ptr, ptr, ptr }
%"class.std::lock_guard" = type { ptr }
%"struct.cineon::Block" = type { i32, i32, i32, i32 }

; Function Attrs: inlinehint mustprogress nounwind uwtable
define linkonce_odr hidden void @_ZN6cineon5Block5CheckEv(ptr noundef nonnull align 4 dereferenceable(16) %0) #0 comdat align 2 {
  %2 = alloca ptr, align 8
  %3 = alloca i32, align 4
  %4 = alloca i32, align 4
  store ptr %0, ptr %2, align 8, !tbaa !141
  %5 = load ptr, ptr %2, align 8
  %6 = getelementptr inbounds nuw %"struct.cineon::Block", ptr %5, i32 0, i32 0
  %7 = load i32, ptr %6, align 4, !tbaa !143
  %8 = getelementptr inbounds nuw %"struct.cineon::Block", ptr %5, i32 0, i32 2
  %9 = load i32, ptr %8, align 4, !tbaa !146
  %10 = icmp sgt i32 %7, %9
  br i1 %10, label %11, label %19

11:                                               ; preds = %1
  call void @llvm.lifetime.start.p0(i64 4, ptr %3) #5
  %12 = getelementptr inbounds nuw %"struct.cineon::Block", ptr %5, i32 0, i32 0
  %13 = load i32, ptr %12, align 4, !tbaa !143
  store i32 %13, ptr %3, align 4, !tbaa !60
  %14 = getelementptr inbounds nuw %"struct.cineon::Block", ptr %5, i32 0, i32 2
  %15 = load i32, ptr %14, align 4, !tbaa !146
  %16 = getelementptr inbounds nuw %"struct.cineon::Block", ptr %5, i32 0, i32 0
  store i32 %15, ptr %16, align 4, !tbaa !143
  %17 = load i32, ptr %3, align 4, !tbaa !60
  %18 = getelementptr inbounds nuw %"struct.cineon::Block", ptr %5, i32 0, i32 2
  store i32 %17, ptr %18, align 4, !tbaa !146
  call void @llvm.lifetime.end.p0(i64 4, ptr %3) #5
  br label %19

19:                                               ; preds = %11, %1
  %20 = getelementptr inbounds nuw %"struct.cineon::Block", ptr %5, i32 0, i32 1
  %21 = load i32, ptr %20, align 4, !tbaa !145
  %22 = getelementptr inbounds nuw %"struct.cineon::Block", ptr %5, i32 0, i32 3
  %23 = load i32, ptr %22, align 4, !tbaa !147
  %24 = icmp sgt i32 %21, %23
  br i1 %24, label %25, label %33

25:                                               ; preds = %19
  call void @llvm.lifetime.start.p0(i64 4, ptr %4) #5
  %26 = getelementptr inbounds nuw %"struct.cineon::Block", ptr %5, i32 0, i32 1
  %27 = load i32, ptr %26, align 4, !tbaa !145
  store i32 %27, ptr %4, align 4, !tbaa !60
  %28 = getelementptr inbounds nuw %"struct.cineon::Block", ptr %5, i32 0, i32 3
  %29 = load i32, ptr %28, align 4, !tbaa !147
  %30 = getelementptr inbounds nuw %"struct.cineon::Block", ptr %5, i32 0, i32 1
  store i32 %29, ptr %30, align 4, !tbaa !145
  %31 = load i32, ptr %4, align 4, !tbaa !60
  %32 = getelementptr inbounds nuw %"struct.cineon::Block", ptr %5, i32 0, i32 3
  store i32 %31, ptr %32, align 4, !tbaa !147
  call void @llvm.lifetime.end.p0(i64 4, ptr %4) #5
  br label %33

33:                                               ; preds = %25, %19
  ret void
}

; Function Attrs: mustprogress nounwind uwtable
define linkonce_odr void @_ZNSt10lock_guardIRKN11OpenImageIO6v3_1_010ImageInputEED2Ev(ptr noundef nonnull align 8 dereferenceable(8) %0) unnamed_addr #7 comdat align 2 personality ptr @__gxx_personality_v0 {
  %2 = alloca ptr, align 8
  store ptr %0, ptr %2, align 8, !tbaa !137
  %3 = load ptr, ptr %2, align 8
  %4 = getelementptr inbounds nuw %"class.std::lock_guard", ptr %3, i32 0, i32 0
  %5 = load ptr, ptr %4, align 8, !tbaa !139
  invoke void @_ZNK11OpenImageIO6v3_1_010ImageInput6unlockEv(ptr noundef nonnull align 8 dereferenceable(184) %5)
          to label %6 unwind label %7

6:                                                ; preds = %1
  ret void

7:                                                ; preds = %1
  %8 = landingpad { ptr, i32 }
          catch ptr null
  %9 = extractvalue { ptr, i32 } %8, 0
  call void @__clang_call_terminate(ptr %9) #24
  unreachable
}

; Function Attrs: inlinehint mustprogress uwtable
define linkonce_odr hidden void @_ZN6cineon5BlockC2Eiiii(ptr noundef nonnull align 4 dereferenceable(16) %0, i32 noundef %1, i32 noundef %2, i32 noundef %3, i32 noundef %4) unnamed_addr #11 comdat align 2 {
  %6 = alloca ptr, align 8
  %7 = alloca i32, align 4
  %8 = alloca i32, align 4
  %9 = alloca i32, align 4
  %10 = alloca i32, align 4
  store ptr %0, ptr %6, align 8, !tbaa !141
  store i32 %1, ptr %7, align 4, !tbaa !60
  store i32 %2, ptr %8, align 4, !tbaa !60
  store i32 %3, ptr %9, align 4, !tbaa !60
  store i32 %4, ptr %10, align 4, !tbaa !60
  %11 = load ptr, ptr %6, align 8
  %12 = getelementptr inbounds nuw %"struct.cineon::Block", ptr %11, i32 0, i32 0
  %13 = load i32, ptr %7, align 4, !tbaa !60
  store i32 %13, ptr %12, align 4, !tbaa !143
  %14 = getelementptr inbounds nuw %"struct.cineon::Block", ptr %11, i32 0, i32 1
  %15 = load i32, ptr %8, align 4, !tbaa !60
  store i32 %15, ptr %14, align 4, !tbaa !145
  %16 = getelementptr inbounds nuw %"struct.cineon::Block", ptr %11, i32 0, i32 2
  %17 = load i32, ptr %9, align 4, !tbaa !60
  store i32 %17, ptr %16, align 4, !tbaa !146
  %18 = getelementptr inbounds nuw %"struct.cineon::Block", ptr %11, i32 0, i32 3
  %19 = load i32, ptr %10, align 4, !tbaa !60
  store i32 %19, ptr %18, align 4, !tbaa !147
  call void @_ZN6cineon5Block5CheckEv(ptr noundef nonnull align 4 dereferenceable(16) %11)
  ret void
}

; Function Attrs: mustprogress uwtable
define linkonce_odr noundef zeroext i1 @_ZN11OpenImageIO6v3_1_010ImageInput13seek_subimageEii(ptr noundef nonnull align 8 dereferenceable(184) %0, i32 noundef %1, i32 noundef %2) unnamed_addr #6 comdat align 2 {
  %4 = alloca ptr, align 8
  %5 = alloca i32, align 4
  %6 = alloca i32, align 4
  store ptr %0, ptr %4, align 8, !tbaa !79
  store i32 %1, ptr %5, align 4, !tbaa !60
  store i32 %2, ptr %6, align 4, !tbaa !60
  %7 = load ptr, ptr %4, align 8
  %8 = load i32, ptr %5, align 4, !tbaa !60
  %9 = load ptr, ptr %7, align 8, !tbaa !10
  %10 = getelementptr inbounds ptr, ptr %9, i64 13
  %11 = load ptr, ptr %10, align 8
  %12 = call noundef i32 %11(ptr noundef nonnull align 8 dereferenceable(184) %7)
  %13 = icmp eq i32 %8, %12
  br i1 %13, label %14, label %21

14:                                               ; preds = %3
  %15 = load i32, ptr %6, align 4, !tbaa !60
  %16 = load ptr, ptr %7, align 8, !tbaa !10
  %17 = getelementptr inbounds ptr, ptr %16, i64 14
  %18 = load ptr, ptr %17, align 8
  %19 = call noundef i32 %18(ptr noundef nonnull align 8 dereferenceable(184) %7)
  %20 = icmp eq i32 %15, %19
  br label %21

21:                                               ; preds = %14, %3
  %22 = phi i1 [ false, %3 ], [ %20, %14 ]
  ret i1 %22
}

; Function Attrs: mustprogress uwtable
define linkonce_odr void @_ZNSt10lock_guardIRKN11OpenImageIO6v3_1_010ImageInputEEC2ES4_(ptr noundef nonnull align 8 dereferenceable(8) %0, ptr noundef nonnull align 8 dereferenceable(184) %1) unnamed_addr #6 comdat align 2 {
  %3 = alloca ptr, align 8
  %4 = alloca ptr, align 8
  store ptr %0, ptr %3, align 8, !tbaa !137
  store ptr %1, ptr %4, align 8, !tbaa !79
  %5 = load ptr, ptr %3, align 8
  %6 = getelementptr inbounds nuw %"class.std::lock_guard", ptr %5, i32 0, i32 0
  %7 = load ptr, ptr %4, align 8, !tbaa !79
  store ptr %7, ptr %6, align 8, !tbaa !79
  %8 = getelementptr inbounds nuw %"class.std::lock_guard", ptr %5, i32 0, i32 0
  %9 = load ptr, ptr %8, align 8, !tbaa !139
  call void @_ZNK11OpenImageIO6v3_1_010ImageInput4lockEv(ptr noundef nonnull align 8 dereferenceable(184) %9)
  ret void
}

; Function Attrs: mustprogress uwtable
define hidden noundef zeroext i1 @_ZN11OpenImageIO6v3_1_011CineonInput20read_native_scanlineEiiiiPv(ptr noundef nonnull align 8 dereferenceable(2296) %0, i32 noundef %1, i32 noundef %2, i32 noundef %3, i32 noundef %4, ptr noundef %5) unnamed_addr #6 align 2 personality ptr @__gxx_personality_v0 {
  %7 = alloca i1, align 1
  %8 = alloca ptr, align 8
  %9 = alloca i32, align 4
  %10 = alloca i32, align 4
  %11 = alloca i32, align 4
  %12 = alloca i32, align 4
  %13 = alloca ptr, align 8
  %14 = alloca %"class.std::lock_guard", align 8
  %15 = alloca ptr, align 8
  %16 = alloca i32, align 4
  %17 = alloca i32, align 4
  %18 = alloca %"struct.cineon::Block", align 4
  store ptr %0, ptr %8, align 8, !tbaa !8
  store i32 %1, ptr %9, align 4, !tbaa !60
  store i32 %2, ptr %10, align 4, !tbaa !60
  store i32 %3, ptr %11, align 4, !tbaa !60
  store i32 %4, ptr %12, align 4, !tbaa !60
  store ptr %5, ptr %13, align 8, !tbaa !136
  %19 = load ptr, ptr %8, align 8
  call void @llvm.lifetime.start.p0(i64 8, ptr %14) #5
  call void @_ZNSt10lock_guardIRKN11OpenImageIO6v3_1_010ImageInputEEC2ES4_(ptr noundef nonnull align 8 dereferenceable(8) %14, ptr noundef nonnull align 8 dereferenceable(184) %19)
  %20 = load i32, ptr %9, align 4, !tbaa !60
  %21 = load i32, ptr %10, align 4, !tbaa !60
  %22 = invoke noundef zeroext i1 @_ZN11OpenImageIO6v3_1_010ImageInput13seek_subimageEii(ptr noundef nonnull align 8 dereferenceable(184) %19, i32 noundef %20, i32 noundef %21)
          to label %23 unwind label %25

23:                                               ; preds = %6
  br i1 %22, label %29, label %24

24:                                               ; preds = %23
  store i1 false, ptr %7, align 1
  store i32 1, ptr %17, align 4
  br label %53

25:                                               ; preds = %6
  %26 = landingpad { ptr, i32 }
          cleanup
  %27 = extractvalue { ptr, i32 } %26, 0
  store ptr %27, ptr %15, align 8
  %28 = extractvalue { ptr, i32 } %26, 1
  store i32 %28, ptr %16, align 4
  br label %55

29:                                               ; preds = %23
  call void @llvm.lifetime.start.p0(i64 16, ptr %18) #5
  %30 = load i32, ptr %11, align 4, !tbaa !60
  %31 = getelementptr inbounds nuw %"class.OpenImageIO::v3_1_0::CineonInput", ptr %19, i32 0, i32 2
  %32 = getelementptr inbounds nuw %"class.cineon::Reader", ptr %31, i32 0, i32 1
  %33 = invoke noundef i32 @_ZNK6cineon6Header5WidthEv(ptr noundef nonnull align 4 dereferenceable(2048) %32)
          to label %34 unwind label %47

34:                                               ; preds = %29
  %35 = sub i32 %33, 1
  %36 = load i32, ptr %11, align 4, !tbaa !60
  invoke void @_ZN6cineon5BlockC2Eiiii(ptr noundef nonnull align 4 dereferenceable(16) %18, i32 noundef 0, i32 noundef %30, i32 noundef %35, i32 noundef %36)
          to label %37 unwind label %47

37:                                               ; preds = %34
  %38 = getelementptr inbounds nuw %"class.OpenImageIO::v3_1_0::CineonInput", ptr %19, i32 0, i32 2
  %39 = load ptr, ptr %13, align 8, !tbaa !136
  %40 = getelementptr inbounds nuw %"class.OpenImageIO::v3_1_0::CineonInput", ptr %19, i32 0, i32 2
  %41 = getelementptr inbounds nuw %"class.cineon::Reader", ptr %40, i32 0, i32 1
  %42 = invoke noundef i32 @_ZNK6cineon13GenericHeader17ComponentDataSizeEi(ptr noundef nonnull align 4 dereferenceable(1024) %41, i32 noundef 0)
          to label %43 unwind label %47

43:                                               ; preds = %37
  %44 = invoke noundef zeroext i1 @_ZN6cineon6Reader9ReadBlockEPvNS_8DataSizeERNS_5BlockE(ptr noundef nonnull align 8 dereferenceable(2080) %38, ptr noundef %39, i32 noundef %42, ptr noundef nonnull align 4 dereferenceable(16) %18)
          to label %45 unwind label %47

45:                                               ; preds = %43
  br i1 %44, label %51, label %46

46:                                               ; preds = %45
  store i1 false, ptr %7, align 1
  store i32 1, ptr %17, align 4
  br label %52

47:                                               ; preds = %43, %37, %34, %29
  %48 = landingpad { ptr, i32 }
          cleanup
  %49 = extractvalue { ptr, i32 } %48, 0
  store ptr %49, ptr %15, align 8
  %50 = extractvalue { ptr, i32 } %48, 1
  store i32 %50, ptr %16, align 4
  call void @llvm.lifetime.end.p0(i64 16, ptr %18) #5
  br label %55

51:                                               ; preds = %45
  store i1 true, ptr %7, align 1
  store i32 1, ptr %17, align 4
  br label %52

52:                                               ; preds = %51, %46
  call void @llvm.lifetime.end.p0(i64 16, ptr %18) #5
  br label %53

53:                                               ; preds = %52, %24
  call void @_ZNSt10lock_guardIRKN11OpenImageIO6v3_1_010ImageInputEED2Ev(ptr noundef nonnull align 8 dereferenceable(8) %14) #5
  call void @llvm.lifetime.end.p0(i64 8, ptr %14) #5
  %54 = load i1, ptr %7, align 1
  ret i1 %54

55:                                               ; preds = %47, %25
  call void @_ZNSt10lock_guardIRKN11OpenImageIO6v3_1_010ImageInputEED2Ev(ptr noundef nonnull align 8 dereferenceable(8) %14) #5
  call void @llvm.lifetime.end.p0(i64 8, ptr %14) #5
  br label %56

56:                                               ; preds = %55
  %57 = load ptr, ptr %15, align 8
  %58 = load i32, ptr %16, align 4
  %59 = insertvalue { ptr, i32 } poison, ptr %57, 0
  %60 = insertvalue { ptr, i32 } %59, i32 %58, 1
  resume { ptr, i32 } %60
}