; Function Attrs: mustprogress uwtable
define hidden noundef zeroext i1 @_ZN11OpenImageIO6v3_1_011CineonInput20read_native_scanlineEiiiiPv(ptr noundef nonnull align 8 dereferenceable(2296) %0, i32 noundef %1, i32 noundef %2, i32 noundef %3, i32 %4, ptr noundef %5) unnamed_addr #5 align 2 personality ptr @__gxx_personality_v0 {
  %7 = alloca %"struct.cineon::Block", align 4
  tail call void @_ZNK11OpenImageIO6v3_1_010ImageInput4lockEv(ptr noundef nonnull align 8 dereferenceable(184) %0)
  %8 = load ptr, ptr %0, align 8, !tbaa !3
  %9 = getelementptr inbounds nuw i8, ptr %8, i64 104
  %10 = load ptr, ptr %9, align 8
  %11 = invoke noundef i32 %10(ptr noundef nonnull align 8 dereferenceable(184) %0)
          to label %.noexc unwind label %19

.noexc:                                           ; preds = %6
  %12 = icmp eq i32 %1, %11
  br i1 %12, label %13, label %_ZN11OpenImageIO6v3_1_010ImageInput13seek_subimageEii.exit.thread

13:                                               ; preds = %.noexc
  %14 = load ptr, ptr %0, align 8, !tbaa !3
  %15 = getelementptr inbounds nuw i8, ptr %14, i64 112
  %16 = load ptr, ptr %15, align 8
  %17 = invoke noundef i32 %16(ptr noundef nonnull align 8 dereferenceable(184) %0)
          to label %_ZN11OpenImageIO6v3_1_010ImageInput13seek_subimageEii.exit unwind label %19

_ZN11OpenImageIO6v3_1_010ImageInput13seek_subimageEii.exit: ; preds = %13
  %18 = icmp eq i32 %2, %17
  br i1 %18, label %21, label %_ZN11OpenImageIO6v3_1_010ImageInput13seek_subimageEii.exit.thread

19:                                               ; preds = %13, %6
  %20 = landingpad { ptr, i32 }
          cleanup
  br label %41

21:                                               ; preds = %_ZN11OpenImageIO6v3_1_010ImageInput13seek_subimageEii.exit
  call void @llvm.lifetime.start.p0(i64 16, ptr nonnull %7) #25
  %22 = getelementptr inbounds nuw i8, ptr %0, i64 192
  %23 = getelementptr inbounds nuw i8, ptr %0, i64 200
  %24 = invoke noundef i32 @_ZNK6cineon6Header5WidthEv(ptr noundef nonnull align 4 dereferenceable(2048) %23)
          to label %25 unwind label %35

25:                                               ; preds = %21
  %26 = add i32 %24, -1
  store i32 0, ptr %7, align 4, !tbaa !147
  %27 = getelementptr inbounds nuw i8, ptr %7, i64 4
  store i32 %3, ptr %27, align 4, !tbaa !149
  %28 = getelementptr inbounds nuw i8, ptr %7, i64 8
  store i32 %26, ptr %28, align 4, !tbaa !150
  %29 = getelementptr inbounds nuw i8, ptr %7, i64 12
  store i32 %3, ptr %29, align 4, !tbaa !151
  %30 = icmp slt i32 %26, 0
  br i1 %30, label %31, label %_ZN6cineon5BlockC2Eiiii.exit

31:                                               ; preds = %25
  store i32 %26, ptr %7, align 4, !tbaa !147
  store i32 0, ptr %28, align 4, !tbaa !150
  br label %_ZN6cineon5BlockC2Eiiii.exit

_ZN6cineon5BlockC2Eiiii.exit:                     ; preds = %31, %25
  %32 = invoke noundef i32 @_ZNK6cineon13GenericHeader17ComponentDataSizeEi(ptr noundef nonnull align 4 dereferenceable(1024) %23, i32 noundef 0)
          to label %33 unwind label %35

33:                                               ; preds = %_ZN6cineon5BlockC2Eiiii.exit
  %34 = invoke noundef zeroext i1 @_ZN6cineon6Reader9ReadBlockEPvNS_8DataSizeERNS_5BlockE(ptr noundef nonnull align 8 dereferenceable(2080) %22, ptr noundef %5, i32 noundef %32, ptr noundef nonnull align 4 dereferenceable(16) %7)
          to label %37 unwind label %35

35:                                               ; preds = %33, %_ZN6cineon5BlockC2Eiiii.exit, %21
  %36 = landingpad { ptr, i32 }
          cleanup
  call void @llvm.lifetime.end.p0(i64 16, ptr nonnull %7) #25
  br label %41

37:                                               ; preds = %33
  call void @llvm.lifetime.end.p0(i64 16, ptr nonnull %7) #25
  br label %_ZN11OpenImageIO6v3_1_010ImageInput13seek_subimageEii.exit.thread

_ZN11OpenImageIO6v3_1_010ImageInput13seek_subimageEii.exit.thread: ; preds = %.noexc, %_ZN11OpenImageIO6v3_1_010ImageInput13seek_subimageEii.exit, %37
  %.09 = phi i1 [ %34, %37 ], [ false, %_ZN11OpenImageIO6v3_1_010ImageInput13seek_subimageEii.exit ], [ false, %.noexc ]
  invoke void @_ZNK11OpenImageIO6v3_1_010ImageInput6unlockEv(ptr noundef nonnull align 8 dereferenceable(184) %0)
          to label %_ZNSt10lock_guardIRKN11OpenImageIO6v3_1_010ImageInputEED2Ev.exit unwind label %38

38:                                               ; preds = %_ZN11OpenImageIO6v3_1_010ImageInput13seek_subimageEii.exit.thread
  %39 = landingpad { ptr, i32 }
          catch ptr null
  %40 = extractvalue { ptr, i32 } %39, 0
  call void @__clang_call_terminate(ptr %40) #29
  unreachable

_ZNSt10lock_guardIRKN11OpenImageIO6v3_1_010ImageInputEED2Ev.exit: ; preds = %_ZN11OpenImageIO6v3_1_010ImageInput13seek_subimageEii.exit.thread
  ret i1 %.09

41:                                               ; preds = %35, %19
  %.pn = phi { ptr, i32 } [ %36, %35 ], [ %20, %19 ]
  invoke void @_ZNK11OpenImageIO6v3_1_010ImageInput6unlockEv(ptr noundef nonnull align 8 dereferenceable(184) %0)
          to label %_ZNSt10lock_guardIRKN11OpenImageIO6v3_1_010ImageInputEED2Ev.exit12 unwind label %42

42:                                               ; preds = %41
  %43 = landingpad { ptr, i32 }
          catch ptr null
  %44 = extractvalue { ptr, i32 } %43, 0
  call void @__clang_call_terminate(ptr %44) #29
  unreachable

_ZNSt10lock_guardIRKN11OpenImageIO6v3_1_010ImageInputEED2Ev.exit12: ; preds = %41
  resume { ptr, i32 } %.pn
}